target datalayout = "e-m:e-p270:32:32-p271:32:32-p272:64:64-i64:64-i128:128-f80:128-n8:16:32:64-S128"
target triple = "x86_64-pc-linux-gnu"

@hf_ndps_pa_name = internal global i32 0, align 4
@hf_ndps_tree = internal global i32 0, align 4
@hf_ndps_object = internal global i32 0, align 4
@hf_obj_id_type = internal global i32 0, align 4
@hf_object_name = internal global i32 0, align 4
@hf_ndps_document_number = internal global i32 0, align 4
@hf_ndps_printer_name = internal global i32 0, align 4
@hf_ndps_qualified_name = internal global i32 0, align 4
@hf_ndps_event_type = internal global i32 0, align 4
@ett_ndps = internal global i32 0, align 4

; Function Attrs: nounwind uwtable
define internal i32 @qualifiedname(ptr noundef %0, ptr noundef %1, i32 noundef %2) #0 {
  %4 = alloca ptr, align 8
  %5 = alloca ptr, align 8
  %6 = alloca i32, align 4
  %7 = alloca i32, align 4
  store ptr %0, ptr %4, align 8
  store ptr %1, ptr %5, align 8
  store i32 %2, ptr %6, align 4
  store i32 0, ptr %7, align 4
  %8 = load ptr, ptr %4, align 8
  %9 = load i32, ptr %6, align 4
  %10 = call i32 @tvb_get_ntohl(ptr noundef %8, i32 noundef %9)
  store i32 %10, ptr %7, align 4
  %11 = load ptr, ptr %5, align 8
  %12 = load i32, ptr @hf_ndps_qualified_name, align 4
  %13 = load ptr, ptr %4, align 8
  %14 = load i32, ptr %6, align 4
  %15 = load i32, ptr %7, align 4
  %16 = call ptr @proto_tree_add_uint(ptr noundef %11, i32 noundef %12, ptr noundef %13, i32 noundef %14, i32 noundef 4, i32 noundef %15)
  %17 = load i32, ptr %6, align 4
  %18 = add i32 %17, 4
  store i32 %18, ptr %6, align 4
  %19 = load i32, ptr %7, align 4
  %20 = icmp ne i32 %19, 0
  br i1 %20, label %21, label %42

21:                                               ; preds = %3
  %22 = load i32, ptr %7, align 4
  %23 = icmp eq i32 %22, 1
  br i1 %23, label %24, label %30

24:                                               ; preds = %21
  %25 = load ptr, ptr %4, align 8
  %26 = load i32, ptr @hf_ndps_printer_name, align 4
  %27 = load ptr, ptr %5, align 8
  %28 = load i32, ptr %6, align 4
  %29 = call i32 @ndps_string(ptr noundef %25, i32 noundef %26, ptr noundef %27, i32 noundef %28, ptr noundef null)
  store i32 %29, ptr %6, align 4
  br label %41

30:                                               ; preds = %21
  %31 = load ptr, ptr %4, align 8
  %32 = load i32, ptr @hf_ndps_pa_name, align 4
  %33 = load ptr, ptr %5, align 8
  %34 = load i32, ptr %6, align 4
  %35 = call i32 @ndps_string(ptr noundef %31, i32 noundef %32, ptr noundef %33, i32 noundef %34, ptr noundef null)
  store i32 %35, ptr %6, align 4
  %36 = load ptr, ptr %4, align 8
  %37 = load i32, ptr @hf_ndps_tree, align 4
  %38 = load ptr, ptr %5, align 8
  %39 = load i32, ptr %6, align 4
  %40 = call i32 @ndps_string(ptr noundef %36, i32 noundef %37, ptr noundef %38, i32 noundef %39, ptr noundef null)
  store i32 %40, ptr %6, align 4
  br label %41

41:                                               ; preds = %30, %24
  br label %42

42:                                               ; preds = %41, %3
  %43 = load i32, ptr %6, align 4
  ret i32 %43
}

; Function Attrs: nounwind uwtable
define internal i32 @objectidentification(ptr noundef %0, ptr noundef %1, i32 noundef %2) #0 {
  %4 = alloca i32, align 4
  %5 = alloca ptr, align 8
  %6 = alloca ptr, align 8
  %7 = alloca i32, align 4
  %8 = alloca i32, align 4
  %9 = alloca ptr, align 8
  %10 = alloca ptr, align 8
  store ptr %0, ptr %5, align 8
  store ptr %1, ptr %6, align 8
  store i32 %2, ptr %7, align 4
  store i32 0, ptr %8, align 4
  %11 = load ptr, ptr %5, align 8
  %12 = load i32, ptr %7, align 4
  %13 = call i32 @tvb_get_ntohl(ptr noundef %11, i32 noundef %12)
  store i32 %13, ptr %8, align 4
  %14 = load ptr, ptr %6, align 8
  %15 = load i32, ptr @hf_obj_id_type, align 4
  %16 = load ptr, ptr %5, align 8
  %17 = load i32, ptr %7, align 4
  %18 = call ptr @proto_tree_add_item(ptr noundef %14, i32 noundef %15, ptr noundef %16, i32 noundef %17, i32 noundef 4, i32 noundef 0)
  store ptr %18, ptr %10, align 8
  %19 = load ptr, ptr %10, align 8
  %20 = load i32, ptr @ett_ndps, align 4
  %21 = call ptr @proto_item_add_subtree(ptr noundef %19, i32 noundef %20)
  store ptr %21, ptr %9, align 8
  %22 = load i32, ptr %7, align 4
  %23 = add i32 %22, 4
  store i32 %23, ptr %7, align 4
  %24 = load i32, ptr %8, align 4
  switch i32 %24, label %113 [
    i32 0, label %25
    i32 1, label %38
    i32 2, label %51
    i32 3, label %56
    i32 4, label %74
    i32 5, label %79
    i32 6, label %85
    i32 7, label %91
    i32 8, label %96
  ]

25:                                               ; preds = %3
  %26 = load ptr, ptr %5, align 8
  %27 = load i32, ptr @hf_ndps_printer_name, align 4
  %28 = load ptr, ptr %9, align 8
  %29 = load i32, ptr %7, align 4
  %30 = call i32 @ndps_string(ptr noundef %26, i32 noundef %27, ptr noundef %28, i32 noundef %29, ptr noundef null)
  store i32 %30, ptr %7, align 4
  %31 = load ptr, ptr %9, align 8
  %32 = load i32, ptr @hf_ndps_object, align 4
  %33 = load ptr, ptr %5, align 8
  %34 = load i32, ptr %7, align 4
  %35 = call ptr @proto_tree_add_item(ptr noundef %31, i32 noundef %32, ptr noundef %33, i32 noundef %34, i32 noundef 4, i32 noundef 0)
  %36 = load i32, ptr %7, align 4
  %37 = add i32 %36, 4
  store i32 %37, ptr %7, align 4
  br label %114

38:                                               ; preds = %3
  %39 = load ptr, ptr %5, align 8
  %40 = load i32, ptr @hf_ndps_printer_name, align 4
  %41 = load ptr, ptr %9, align 8
  %42 = load i32, ptr %7, align 4
  %43 = call i32 @ndps_string(ptr noundef %39, i32 noundef %40, ptr noundef %41, i32 noundef %42, ptr noundef null)
  store i32 %43, ptr %7, align 4
  %44 = load ptr, ptr %9, align 8
  %45 = load i32, ptr @hf_ndps_document_number, align 4
  %46 = load ptr, ptr %5, align 8
  %47 = load i32, ptr %7, align 4
  %48 = call ptr @proto_tree_add_item(ptr noundef %44, i32 noundef %45, ptr noundef %46, i32 noundef %47, i32 noundef 4, i32 noundef 0)
  %49 = load i32, ptr %7, align 4
  %50 = add i32 %49, 4
  store i32 %50, ptr %7, align 4
  br label %114

51:                                               ; preds = %3
  %52 = load ptr, ptr %5, align 8
  %53 = load ptr, ptr %9, align 8
  %54 = load i32, ptr %7, align 4
  %55 = call i32 @objectidentifier(ptr noundef %52, ptr noundef %53, i32 noundef %54)
  store i32 %55, ptr %7, align 4
  br label %114

56:                                               ; preds = %3
  %57 = load ptr, ptr %5, align 8
  %58 = load i32, ptr @hf_object_name, align 4
  %59 = load ptr, ptr %9, align 8
  %60 = load i32, ptr %7, align 4
  %61 = call i32 @ndps_string(ptr noundef %57, i32 noundef %58, ptr noundef %59, i32 noundef %60, ptr noundef null)
  store i32 %61, ptr %7, align 4
  %62 = load i32, ptr %7, align 4
  %63 = load ptr, ptr %5, align 8
  %64 = load i32, ptr %7, align 4
  %65 = call i32 @tvb_captured_length_remaining(ptr noundef %63, i32 noundef %64)
  %66 = icmp sgt i32 %62, %65
  br i1 %66, label %67, label %69

67:                                               ; preds = %56
  %68 = load i32, ptr %7, align 4
  store i32 %68, ptr %4, align 4
  br label %116

69:                                               ; preds = %56
  %70 = load ptr, ptr %5, align 8
  %71 = load ptr, ptr %9, align 8
  %72 = load i32, ptr %7, align 4
  %73 = call i32 @name_or_id(ptr noundef %70, ptr noundef %71, i32 noundef %72)
  store i32 %73, ptr %7, align 4
  br label %114

74:                                               ; preds = %3
  %75 = load ptr, ptr %5, align 8
  %76 = load ptr, ptr %9, align 8
  %77 = load i32, ptr %7, align 4
  %78 = call i32 @name_or_id(ptr noundef %75, ptr noundef %76, i32 noundef %77)
  store i32 %78, ptr %7, align 4
  br label %114

79:                                               ; preds = %3
  %80 = load ptr, ptr %5, align 8
  %81 = load i32, ptr @hf_object_name, align 4
  %82 = load ptr, ptr %9, align 8
  %83 = load i32, ptr %7, align 4
  %84 = call i32 @ndps_string(ptr noundef %80, i32 noundef %81, ptr noundef %82, i32 noundef %83, ptr noundef null)
  store i32 %84, ptr %7, align 4
  br label %114

85:                                               ; preds = %3
  %86 = load ptr, ptr %5, align 8
  %87 = load i32, ptr @hf_ndps_printer_name, align 4
  %88 = load ptr, ptr %9, align 8
  %89 = load i32, ptr %7, align 4
  %90 = call i32 @ndps_string(ptr noundef %86, i32 noundef %87, ptr noundef %88, i32 noundef %89, ptr noundef null)
  store i32 %90, ptr %7, align 4
  br label %114

91:                                               ; preds = %3
  %92 = load ptr, ptr %5, align 8
  %93 = load ptr, ptr %6, align 8
  %94 = load i32, ptr %7, align 4
  %95 = call i32 @qualifiedname(ptr noundef %92, ptr noundef %93, i32 noundef %94)
  store i32 %95, ptr %7, align 4
  br label %114

96:                                               ; preds = %3
  %97 = load ptr, ptr %5, align 8
  %98 = load i32, ptr @hf_object_name, align 4
  %99 = load ptr, ptr %9, align 8
  %100 = load i32, ptr %7, align 4
  %101 = call i32 @ndps_string(ptr noundef %97, i32 noundef %98, ptr noundef %99, i32 noundef %100, ptr noundef null)
  store i32 %101, ptr %7, align 4
  %102 = load ptr, ptr %5, align 8
  %103 = load ptr, ptr %9, align 8
  %104 = load i32, ptr %7, align 4
  %105 = call i32 @objectidentifier(ptr noundef %102, ptr noundef %103, i32 noundef %104)
  store i32 %105, ptr %7, align 4
  %106 = load ptr, ptr %9, align 8
  %107 = load i32, ptr @hf_ndps_event_type, align 4
  %108 = load ptr, ptr %5, align 8
  %109 = load i32, ptr %7, align 4
  %110 = call ptr @proto_tree_add_item(ptr noundef %106, i32 noundef %107, ptr noundef %108, i32 noundef %109, i32 noundef 4, i32 noundef 0)
  %111 = load i32, ptr %7, align 4
  %112 = add i32 %111, 4
  store i32 %112, ptr %7, align 4
  br label %113

113:                                              ; preds = %96, %3
  br label %114

114:                                              ; preds = %113, %91, %85, %79, %74, %69, %51, %38, %25
  %115 = load i32, ptr %7, align 4
  store i32 %115, ptr %4, align 4
  br label %116

116:                                              ; preds = %114, %67
  %117 = load i32, ptr %4, align 4
  ret i32 %117
}