; Function Attrs: nounwind uwtable
define internal fastcc i32 @objectidentification(ptr noundef %0, ptr noundef %1, i32 noundef %2) unnamed_addr #0 {
  %4 = tail call i32 @tvb_get_ntohl(ptr noundef %0, i32 noundef %2) #6
  %5 = load i32, ptr @hf_obj_id_type, align 4
  %6 = tail call ptr @proto_tree_add_item(ptr noundef %1, i32 noundef %5, ptr noundef %0, i32 noundef %2, i32 noundef 4, i32 noundef 0) #6
  %7 = load i32, ptr @ett_ndps, align 4
  %8 = tail call ptr @proto_item_add_subtree(ptr noundef %6, i32 noundef %7) #6
  %9 = add i32 %2, 4
  switch i32 %4, label %qualifiedname.exit [
    i32 0, label %10
    i32 1, label %16
    i32 2, label %22
    i32 3, label %24
    i32 4, label %31
    i32 5, label %33
    i32 6, label %36
    i32 7, label %39
    i32 8, label %49
  ]

10:                                               ; preds = %3
  %11 = load i32, ptr @hf_ndps_printer_name, align 4
  %12 = tail call fastcc i32 @ndps_string(ptr noundef %0, i32 noundef %11, ptr noundef %8, i32 noundef %9, ptr noundef null)
  %13 = load i32, ptr @hf_ndps_object, align 4
  %14 = tail call ptr @proto_tree_add_item(ptr noundef %8, i32 noundef %13, ptr noundef %0, i32 noundef %12, i32 noundef 4, i32 noundef 0) #6
  %15 = add i32 %12, 4
  br label %qualifiedname.exit

16:                                               ; preds = %3
  %17 = load i32, ptr @hf_ndps_printer_name, align 4
  %18 = tail call fastcc i32 @ndps_string(ptr noundef %0, i32 noundef %17, ptr noundef %8, i32 noundef %9, ptr noundef null)
  %19 = load i32, ptr @hf_ndps_document_number, align 4
  %20 = tail call ptr @proto_tree_add_item(ptr noundef %8, i32 noundef %19, ptr noundef %0, i32 noundef %18, i32 noundef 4, i32 noundef 0) #6
  %21 = add i32 %18, 4
  br label %qualifiedname.exit

22:                                               ; preds = %3
  %23 = tail call fastcc i32 @objectidentifier(ptr noundef %0, ptr noundef %8, i32 noundef %9)
  br label %qualifiedname.exit

24:                                               ; preds = %3
  %25 = load i32, ptr @hf_object_name, align 4
  %26 = tail call fastcc i32 @ndps_string(ptr noundef %0, i32 noundef %25, ptr noundef %8, i32 noundef %9, ptr noundef null)
  %27 = tail call i32 @tvb_captured_length_remaining(ptr noundef %0, i32 noundef %26) #6
  %28 = icmp sgt i32 %26, %27
  br i1 %28, label %qualifiedname.exit, label %29

29:                                               ; preds = %24
  %30 = tail call fastcc i32 @name_or_id(ptr noundef %0, ptr noundef %8, i32 noundef %26)
  br label %qualifiedname.exit

31:                                               ; preds = %3
  %32 = tail call fastcc i32 @name_or_id(ptr noundef %0, ptr noundef %8, i32 noundef %9)
  br label %qualifiedname.exit

33:                                               ; preds = %3
  %34 = load i32, ptr @hf_object_name, align 4
  %35 = tail call fastcc i32 @ndps_string(ptr noundef %0, i32 noundef %34, ptr noundef %8, i32 noundef %9, ptr noundef null)
  br label %qualifiedname.exit

36:                                               ; preds = %3
  %37 = load i32, ptr @hf_ndps_printer_name, align 4
  %38 = tail call fastcc i32 @ndps_string(ptr noundef %0, i32 noundef %37, ptr noundef %8, i32 noundef %9, ptr noundef null)
  br label %qualifiedname.exit

39:                                               ; preds = %3
  %40 = tail call i32 @tvb_get_ntohl(ptr noundef %0, i32 noundef %9) #6
  %41 = load i32, ptr @hf_ndps_qualified_name, align 4
  %42 = tail call ptr @proto_tree_add_uint(ptr noundef %1, i32 noundef %41, ptr noundef %0, i32 noundef %9, i32 noundef 4, i32 noundef %40) #6
  %43 = add i32 %2, 8
  switch i32 %40, label %44 [
    i32 0, label %qualifiedname.exit
    i32 1, label %.sink.split.i
  ]

44:                                               ; preds = %39
  %45 = load i32, ptr @hf_ndps_pa_name, align 4
  %46 = tail call fastcc i32 @ndps_string(ptr noundef %0, i32 noundef %45, ptr noundef %1, i32 noundef %43, ptr noundef null)
  br label %.sink.split.i

.sink.split.i:                                    ; preds = %44, %39
  %hf_ndps_printer_name.sink.i = phi ptr [ @hf_ndps_tree, %44 ], [ @hf_ndps_printer_name, %39 ]
  %.sink19.i = phi i32 [ %46, %44 ], [ %43, %39 ]
  %47 = load i32, ptr %hf_ndps_printer_name.sink.i, align 4
  %48 = tail call fastcc i32 @ndps_string(ptr noundef %0, i32 noundef %47, ptr noundef %1, i32 noundef %.sink19.i, ptr noundef null)
  br label %qualifiedname.exit

49:                                               ; preds = %3
  %50 = load i32, ptr @hf_object_name, align 4
  %51 = tail call fastcc i32 @ndps_string(ptr noundef %0, i32 noundef %50, ptr noundef %8, i32 noundef %9, ptr noundef null)
  %52 = tail call fastcc i32 @objectidentifier(ptr noundef %0, ptr noundef %8, i32 noundef %51)
  %53 = load i32, ptr @hf_ndps_event_type, align 4
  %54 = tail call ptr @proto_tree_add_item(ptr noundef %8, i32 noundef %53, ptr noundef %0, i32 noundef %52, i32 noundef 4, i32 noundef 0) #6
  %55 = add i32 %52, 4
  br label %qualifiedname.exit

qualifiedname.exit:                               ; preds = %.sink.split.i, %39, %10, %16, %22, %29, %31, %33, %36, %49, %3, %24
  %.0 = phi i32 [ %26, %24 ], [ %9, %3 ], [ %55, %49 ], [ %38, %36 ], [ %35, %33 ], [ %32, %31 ], [ %30, %29 ], [ %23, %22 ], [ %21, %16 ], [ %15, %10 ], [ %43, %39 ], [ %48, %.sink.split.i ]
  ret i32 %.0
}